target datalayout = "e-m:e-p270:32:32-p271:32:32-p272:64:64-i64:64-i128:128-f80:128-n8:16:32:64-S128"
target triple = "x86_64-pc-linux-gnu"

; Function Attrs: inlinehint nounwind uwtable
define internal i64 @mbedtls_ct_bool(i64 noundef %0) #3 {
  %2 = alloca i64, align 8
  %3 = alloca i64, align 8
  store i64 %0, ptr %2, align 8, !tbaa !3
  call void @llvm.lifetime.start.p0(i64 8, ptr %3) #7
  %4 = load i64, ptr %2, align 8, !tbaa !3
  %5 = call i64 asm sideeffect "mov  $1, $0                                \0A\09neg  $0                                      \0A\09or   $1, $0                                \0A\09sar  $$63, $0                                 \0A\09", "=&{ax},{di},~{dirflag},~{fpsr},~{flags}"(i64 %4) #7, !srcloc !17
  store i64 %5, ptr %3, align 8, !tbaa !3
  %6 = load i64, ptr %3, align 8, !tbaa !3
  call void @llvm.lifetime.end.p0(i64 8, ptr %3) #7
  ret i64 %6
}

; Function Attrs: nounwind uwtable
define hidden i64 @mbedtls_mpi_core_check_zero_ct(ptr noundef %0, i64 noundef %1) #0 {
  %3 = alloca ptr, align 8
  %4 = alloca i64, align 8
  %5 = alloca ptr, align 8
  %6 = alloca i64, align 8
  %7 = alloca i64, align 8
  store ptr %0, ptr %3, align 8, !tbaa !7
  store i64 %1, ptr %4, align 8, !tbaa !3
  call void @llvm.lifetime.start.p0(i64 8, ptr %5) #7
  %8 = load ptr, ptr %3, align 8, !tbaa !7
  store ptr %8, ptr %5, align 8, !tbaa !7
  call void @llvm.lifetime.start.p0(i64 8, ptr %6) #7
  store i64 0, ptr %6, align 8, !tbaa !3
  call void @llvm.lifetime.start.p0(i64 8, ptr %7) #7
  store i64 0, ptr %7, align 8, !tbaa !3
  br label %9

9:                                                ; preds = %21, %2
  %10 = load i64, ptr %7, align 8, !tbaa !3
  %11 = load i64, ptr %4, align 8, !tbaa !3
  %12 = icmp ult i64 %10, %11
  br i1 %12, label %14, label %13

13:                                               ; preds = %9
  call void @llvm.lifetime.end.p0(i64 8, ptr %7) #7
  br label %24

14:                                               ; preds = %9
  %15 = load ptr, ptr %5, align 8, !tbaa !7
  %16 = load i64, ptr %7, align 8, !tbaa !3
  %17 = getelementptr inbounds nuw i64, ptr %15, i64 %16
  %18 = load volatile i64, ptr %17, align 8, !tbaa !3
  %19 = load i64, ptr %6, align 8, !tbaa !3
  %20 = or i64 %19, %18
  store i64 %20, ptr %6, align 8, !tbaa !3
  br label %21

21:                                               ; preds = %14
  %22 = load i64, ptr %7, align 8, !tbaa !3
  %23 = add i64 %22, 1
  store i64 %23, ptr %7, align 8, !tbaa !3
  br label %9, !llvm.loop !56

24:                                               ; preds = %13
  %25 = load i64, ptr %6, align 8, !tbaa !3
  %26 = call i64 @mbedtls_ct_bool(i64 noundef %25)
  call void @llvm.lifetime.end.p0(i64 8, ptr %6) #7
  call void @llvm.lifetime.end.p0(i64 8, ptr %5) #7
  ret i64 %26
}