; Function Attrs: nounwind uwtable
define hidden i64 @mbedtls_mpi_core_check_zero_ct(ptr noundef %0, i64 noundef %1) local_unnamed_addr #5 {
  %.not = icmp eq i64 %1, 0
  br i1 %.not, label %._crit_edge, label %.lr.ph

._crit_edge:                                      ; preds = %.lr.ph, %2
  %.07.lcssa = phi i64 [ 0, %2 ], [ %6, %.lr.ph ]
  %3 = tail call i64 asm sideeffect "mov  $1, $0                                \0A\09neg  $0                                      \0A\09or   $1, $0                                \0A\09sar  $$63, $0                                 \0A\09", "=&{ax},{di},~{dirflag},~{fpsr},~{flags}"(i64 %.07.lcssa) #10, !srcloc !12
  ret i64 %3

.lr.ph:                                           ; preds = %2, %.lr.ph
  %.09 = phi i64 [ %7, %.lr.ph ], [ 0, %2 ]
  %.078 = phi i64 [ %6, %.lr.ph ], [ 0, %2 ]
  %4 = getelementptr inbounds nuw i64, ptr %0, i64 %.09
  %5 = load volatile i64, ptr %4, align 8, !tbaa !3
  %6 = or i64 %5, %.078
  %7 = add nuw i64 %.09, 1
  %exitcond.not = icmp eq i64 %7, %1
  br i1 %exitcond.not, label %._crit_edge, label %.lr.ph, !llvm.loop !49
}